(dp0
S'gpu_allow_growth'
p1
I00
sS'model_params'
p2
(dp3
S'target.max_seq_len'
p4
I50
sS'encoder.class'
p5
S'seq2seq.encoders.BidirectionalRNNEncoder'
p6
sS'vocab_source_candidate'
p7
S'dataset/fin_qa/train/vocab.sources_candidate.txt'
p8
sS'bridge.class'
p9
S'seq2seq.models.bridges.ZeroBridge'
p10
sS'decoder.params'
p11
(dp12
S'rnn_cell'
p13
(dp14
S'dropout_input_keep_prob'
p15
F0.8
sS'cell_class'
p16
S'GRUCell'
p17
sS'dropout_output_keep_prob'
p18
F1.0
sS'cell_params'
p19
(dp20
S'num_units'
p21
I128
ssS'num_layers'
p22
I1
sssS'optimizer.learning_rate'
p23
F0.0001
sS'vocab_source'
p24
S'dataset/fin_qa/train/vocab.sources.txt'
p25
sS'source.reverse'
p26
I00
sS'optimizer.name'
p27
S'Adam'
p28
sS'attention.class'
p29
S'seq2seq.decoders.attention.CustomizeAttentionLayerDot'
p30
sS'vocab_target'
p31
S'dataset/fin_qa/train/vocab.targets.txt'
p32
sS'decoder.class'
p33
S'seq2seq.decoders.AttentionDecoder'
p34
sS'embedding.dim'
p35
I128
sS'optimizer.params'
p36
(dp37
S'epsilon'
p38
F8e-07
ssS'attention.params'
p39
(dp40
S'num_units'
p41
I128
ssS'encoder.params'
p42
(dp43
S'rnn_cell'
p44
(dp45
S'dropout_input_keep_prob'
p46
F0.8
sS'cell_class'
p47
S'GRUCell'
p48
sS'dropout_output_keep_prob'
p49
F1.0
sS'cell_params'
p50
(dp51
S'num_units'
p52
I128
ssS'num_layers'
p53
I1
sssS'source.max_seq_len'
p54
I50
ssS'hooks'
p55
(lp56
(dp57
S'class'
p58
S'PrintModelAnalysisHook'
p59
sa(dp60
S'class'
p61
S'MetadataCaptureHook'
p62
sa(dp63
S'class'
p64
S'SyncReplicasOptimizerHook'
p65
sa(dp66
S'params'
p67
(dp68
S'every_n_steps'
p69
I1000
ssS'class'
p70
S'TrainSampleHook'
p71
sasS'train_steps'
p72
I300000
sS'keep_checkpoint_max'
p73
I1
sS'save_checkpoints_secs'
p74
I600
sS'output_dir'
p75
S'model_fin_qa'
p76
sS'tf_random_seed'
p77
NsS'schedule'
p78
S'continuous_train_and_eval'
p79
sS'buckets'
p80
S'10,20,30,40'
p81
sS'eval_every_n_steps'
p82
I1000
sS'model_output_path'
p83
S''
p84
sS'batch_size'
p85
I64
sS'metrics'
p86
(lp87
(dp88
S'class'
p89
S'LogPerplexityMetricSpec'
p90
sa(dp91
S'params'
p92
(dp93
S'postproc_fn'
p94
S'seq2seq.data.postproc.strip_bpe'
p95
sS'separator'
p96
S' '
p97
ssS'class'
p98
S'BleuMetricSpec'
p99
sa(dp100
S'params'
p101
(dp102
g94
g95
sS'rouge_type'
p103
S'rouge_1/f_score'
p104
sg96
g97
ssS'class'
p105
S'RougeMetricSpec'
p106
sa(dp107
S'params'
p108
(dp109
g94
g95
sS'rouge_type'
p110
S'rouge_1/r_score'
p111
sg96
g97
ssS'class'
p112
S'RougeMetricSpec'
p113
sa(dp114
S'params'
p115
(dp116
g94
g95
sS'rouge_type'
p117
S'rouge_1/p_score'
p118
sg96
g97
ssS'class'
p119
S'RougeMetricSpec'
p120
sa(dp121
S'params'
p122
(dp123
g94
g95
sS'rouge_type'
p124
S'rouge_2/f_score'
p125
sg96
g97
ssS'class'
p126
S'RougeMetricSpec'
p127
sa(dp128
S'params'
p129
(dp130
g94
g95
sS'rouge_type'
p131
S'rouge_2/r_score'
p132
sg96
g97
ssS'class'
p133
S'RougeMetricSpec'
p134
sa(dp135
S'params'
p136
(dp137
g94
g95
sS'rouge_type'
p138
S'rouge_2/p_score'
p139
sg96
g97
ssS'class'
p140
S'RougeMetricSpec'
p141
sa(dp142
S'params'
p143
(dp144
g94
g95
sS'rouge_type'
p145
S'rouge_l/f_score'
p146
sg96
g97
ssS'class'
p147
S'RougeMetricSpec'
p148
sasS'input_pipeline_train'
p149
(dp150
S'params'
p151
(dp152
S'target_files'
p153
(lp154
S'dataset/fin_qa/train/targets.txt'
p155
asS'candidate_files'
p156
(lp157
S'dataset/fin_qa/train/sources_candidate.txt'
p158
asS'query_files'
p159
(lp160
S'dataset/fin_qa/train/sources_query.txt'
p161
assS'class'
p162
S'TripleTextInputPipeline'
p163
ssS'keep_checkpoint_every_n_hours'
p164
I4
sS'log_device_placement'
p165
I00
sS'input_pipeline_dev'
p166
(dp167
S'params'
p168
(dp169
S'target_files'
p170
(lp171
S'dataset/fin_qa/dev/targets.txt'
p172
asS'candidate_files'
p173
(lp174
S'dataset/fin_qa/dev/sources_candidate.txt'
p175
asS'query_files'
p176
(lp177
S'dataset/fin_qa/dev/sources_query.txt'
p178
assS'class'
p179
S'TripleTextInputPipeline'
p180
ssS'gpu_memory_fraction'
p181
F1.0
sS'model'
p182
S'AttentionBiSeq2Seq'
p183
sS'config_paths'
p184
S'\n      ./example_configs/nmt_small.yml,\n      ./example_configs/train_seq2seq.yml,\n      ./example_configs/text_metrics_bpe.yml'
p185
sS'save_checkpoints_steps'
p186
Ns.